target datalayout = "e-m:e-p270:32:32-p271:32:32-p272:64:64-i64:64-i128:128-f80:128-n8:16:32:64-S128"
target triple = "x86_64-pc-linux-gnu"

%struct.job_record = type { i32, ptr, ptr, ptr, ptr, i16, i32, i32, i32, ptr, i32, ptr, ptr, i16, ptr, double, i64, ptr, ptr, ptr, ptr, ptr, ptr, i32, ptr, i32, i64, i64, i32, i32, ptr, i16, i64, i64, i8, i32, ptr, ptr, ptr, ptr, ptr, ptr, ptr, ptr, i32, ptr, ptr, i32, ptr, i32, ptr, i32, ptr, i32, ptr, ptr, ptr, ptr, ptr, ptr, i32, i16, i64, ptr, ptr, ptr, ptr, %struct.acct_policy_limit_set_t, i16, ptr, ptr, ptr, ptr, ptr, i32, ptr, ptr, ptr, ptr, ptr, i32, i32, ptr, ptr, ptr, i16, ptr, ptr, i8, ptr, ptr, i64, i64, i8, i32, i32, i8, i32, ptr, i32, i64, i32, ptr, ptr, ptr, i8, i16, i64, i32, ptr, ptr, ptr, ptr, ptr, i16, i32, ptr, ptr, ptr, ptr, i32, ptr, i32, i16, i64, ptr, i32, i32, ptr, i64, ptr, ptr, i64, i32, i32, i64, i32, i32, ptr, ptr, ptr, ptr, ptr, ptr, ptr, ptr, ptr, ptr, ptr, ptr, i32, ptr, i16, i16, i16, i16, ptr, i32, i32, i8, i64 }
%struct.acct_policy_limit_set_t = type { i16, i16, ptr }
%struct.job_details_t = type { i32, ptr, i64, ptr, i32, ptr, i64, ptr, i16, i16, ptr, i16, i32, i32, i32, i16, ptr, i16, ptr, ptr, ptr, i16, ptr, ptr, ptr, ptr, i32, ptr, ptr, ptr, ptr, ptr, i32, i32, i32, ptr, ptr, i16, i32, i32, i32, i32, i32, i32, i16, i16, i32, i8, i8, i32, i32, i64, i64, i16, i32, ptr, ptr, i8, ptr, i32, ptr, i64, ptr, ptr, i16, i16, i16, i8, ptr, ptr, ptr, ptr, ptr, ptr, i64, i32, i32, i8, ptr, i16, ptr, ptr, i16 }
%struct.node_record = type { ptr, ptr, i16, i64, i64, ptr, ptr, ptr, i16, ptr, i16, i16, i32, i32, i64, ptr, i16, i16, ptr, ptr, ptr, ptr, ptr, i64, i64, ptr, ptr, ptr, ptr, i32, ptr, ptr, i64, i64, i32, ptr, i64, ptr, i32, i16, ptr, ptr, i32, ptr, i32, i8, ptr, i32, i16, i16, ptr, i16, i64, i16, i64, ptr, i64, i32, i16, i64, i16, ptr, i16, i64, ptr, i64, i16, i32, i16, ptr, ptr, ptr, i16, i32, i16, i16, i32, ptr, i16, i32 }
%struct.job_resources = type { ptr, ptr, i32, ptr, ptr, ptr, ptr, ptr, i16, ptr, ptr, i32, i32, ptr, i32, ptr, i32, ptr, ptr, ptr, i16, i8 }
%struct.config_record_t = type { i16, i16, i16, i32, ptr, i16, ptr, ptr, i32, i64, ptr, ptr, i64, i16, i16, i32, i16, ptr, ptr, i32 }

@node_record_table_ptr = external global ptr, align 8
@.str.174 = private unnamed_addr constant [34 x i8] c"%s: problem getting offset of %pJ\00", align 1
@__func__.job_update_tres_cnt = private unnamed_addr constant [20 x i8] c"job_update_tres_cnt\00", align 1
@.str.175 = private unnamed_addr constant [39 x i8] c"%s: cpu_cnt underflow (%d > %u) on %pJ\00", align 1
@.str.176 = private unnamed_addr constant [32 x i8] c"%s: total_cpus underflow on %pJ\00", align 1

; Function Attrs: nounwind uwtable
define dso_local i32 @job_update_tres_cnt(ptr noundef %0, i32 noundef %1) #0 {
  %3 = alloca i32, align 4
  %4 = alloca ptr, align 8
  %5 = alloca i32, align 4
  %6 = alloca i32, align 4
  %7 = alloca i32, align 4
  %8 = alloca i32, align 4
  %9 = alloca ptr, align 8
  %10 = alloca i32, align 4
  store ptr %0, ptr %4, align 8
  store i32 %1, ptr %5, align 4
  call void @llvm.lifetime.start.p0(i64 4, ptr %6) #13
  call void @llvm.lifetime.start.p0(i64 4, ptr %7) #13
  store i32 -1, ptr %7, align 4
  call void @llvm.lifetime.start.p0(i64 4, ptr %8) #13
  store i32 0, ptr %8, align 4
  %11 = load ptr, ptr %4, align 8
  %12 = getelementptr inbounds nuw %struct.job_record, ptr %11, i32 0, i32 30
  %13 = load ptr, ptr %12, align 8
  %14 = getelementptr inbounds nuw %struct.job_details_t, ptr %13, i32 0, i32 77
  %15 = load i8, ptr %14, align 8
  %16 = zext i8 %15 to i32
  %17 = and i32 %16, 1
  %18 = icmp ne i32 %17, 0
  br i1 %18, label %19, label %31

19:                                               ; preds = %2
  call void @llvm.lifetime.start.p0(i64 8, ptr %9) #13
  %20 = load ptr, ptr @node_record_table_ptr, align 8
  %21 = load i32, ptr %5, align 4
  %22 = sext i32 %21 to i64
  %23 = getelementptr inbounds ptr, ptr %20, i64 %22
  %24 = load ptr, ptr %23, align 8
  store ptr %24, ptr %9, align 8
  %25 = load ptr, ptr %9, align 8
  %26 = getelementptr inbounds nuw %struct.node_record, ptr %25, i32 0, i32 9
  %27 = load ptr, ptr %26, align 8
  %28 = getelementptr inbounds nuw %struct.config_record_t, ptr %27, i32 0, i32 5
  %29 = load i16, ptr %28, align 8
  %30 = zext i16 %29 to i32
  store i32 %30, ptr %6, align 4
  call void @llvm.lifetime.end.p0(i64 8, ptr %9) #13
  br label %54

31:                                               ; preds = %2
  %32 = load ptr, ptr %4, align 8
  %33 = getelementptr inbounds nuw %struct.job_record, ptr %32, i32 0, i32 59
  %34 = load ptr, ptr %33, align 8
  %35 = load i32, ptr %5, align 4
  %36 = call i32 @job_resources_node_inx_to_cpu_inx(ptr noundef %34, i32 noundef %35)
  store i32 %36, ptr %7, align 4
  %37 = icmp slt i32 %36, 0
  br i1 %37, label %38, label %43

38:                                               ; preds = %31
  %39 = load ptr, ptr %4, align 8
  %40 = call i32 (ptr, ...) @error(ptr noundef @.str.174, ptr noundef @__func__.job_update_tres_cnt, ptr noundef %39)
  %41 = load ptr, ptr %4, align 8
  %42 = getelementptr inbounds nuw %struct.job_record, ptr %41, i32 0, i32 23
  store i32 0, ptr %42, align 8
  store i32 -1, ptr %3, align 4
  store i32 1, ptr %10, align 4
  br label %103

43:                                               ; preds = %31
  %44 = load ptr, ptr %4, align 8
  %45 = getelementptr inbounds nuw %struct.job_record, ptr %44, i32 0, i32 59
  %46 = load ptr, ptr %45, align 8
  %47 = getelementptr inbounds nuw %struct.job_resources, ptr %46, i32 0, i32 5
  %48 = load ptr, ptr %47, align 8
  %49 = load i32, ptr %7, align 4
  %50 = sext i32 %49 to i64
  %51 = getelementptr inbounds i16, ptr %48, i64 %50
  %52 = load i16, ptr %51, align 2
  %53 = zext i16 %52 to i32
  store i32 %53, ptr %6, align 4
  br label %54

54:                                               ; preds = %43, %19
  %55 = load i32, ptr %6, align 4
  %56 = load ptr, ptr %4, align 8
  %57 = getelementptr inbounds nuw %struct.job_record, ptr %56, i32 0, i32 23
  %58 = load i32, ptr %57, align 8
  %59 = icmp ugt i32 %55, %58
  br i1 %59, label %60, label %69

60:                                               ; preds = %54
  %61 = load i32, ptr %6, align 4
  %62 = load ptr, ptr %4, align 8
  %63 = getelementptr inbounds nuw %struct.job_record, ptr %62, i32 0, i32 23
  %64 = load i32, ptr %63, align 8
  %65 = load ptr, ptr %4, align 8
  %66 = call i32 (ptr, ...) @error(ptr noundef @.str.175, ptr noundef @__func__.job_update_tres_cnt, i32 noundef %61, i32 noundef %64, ptr noundef %65)
  %67 = load ptr, ptr %4, align 8
  %68 = getelementptr inbounds nuw %struct.job_record, ptr %67, i32 0, i32 23
  store i32 0, ptr %68, align 8
  store i32 -1, ptr %8, align 4
  br label %75

69:                                               ; preds = %54
  %70 = load i32, ptr %6, align 4
  %71 = load ptr, ptr %4, align 8
  %72 = getelementptr inbounds nuw %struct.job_record, ptr %71, i32 0, i32 23
  %73 = load i32, ptr %72, align 8
  %74 = sub i32 %73, %70
  store i32 %74, ptr %72, align 8
  br label %75

75:                                               ; preds = %69, %60
  %76 = load ptr, ptr %4, align 8
  %77 = getelementptr inbounds nuw %struct.job_record, ptr %76, i32 0, i32 60
  %78 = load i32, ptr %77, align 8
  %79 = zext i32 %78 to i64
  %80 = and i64 %79, 8192
  %81 = icmp ne i64 %80, 0
  br i1 %81, label %82, label %101

82:                                               ; preds = %75
  %83 = load i32, ptr %6, align 4
  %84 = load ptr, ptr %4, align 8
  %85 = getelementptr inbounds nuw %struct.job_record, ptr %84, i32 0, i32 136
  %86 = load i32, ptr %85, align 8
  %87 = icmp ugt i32 %83, %86
  br i1 %87, label %88, label %93

88:                                               ; preds = %82
  %89 = load ptr, ptr %4, align 8
  %90 = call i32 (ptr, ...) @error(ptr noundef @.str.176, ptr noundef @__func__.job_update_tres_cnt, ptr noundef %89)
  %91 = load ptr, ptr %4, align 8
  %92 = getelementptr inbounds nuw %struct.job_record, ptr %91, i32 0, i32 136
  store i32 0, ptr %92, align 8
  store i32 -1, ptr %8, align 4
  br label %99

93:                                               ; preds = %82
  %94 = load i32, ptr %6, align 4
  %95 = load ptr, ptr %4, align 8
  %96 = getelementptr inbounds nuw %struct.job_record, ptr %95, i32 0, i32 136
  %97 = load i32, ptr %96, align 8
  %98 = sub i32 %97, %94
  store i32 %98, ptr %96, align 8
  br label %99

99:                                               ; preds = %93, %88
  %100 = load ptr, ptr %4, align 8
  call void @job_set_alloc_tres(ptr noundef %100, i1 noundef zeroext false)
  br label %101

101:                                              ; preds = %99, %75
  %102 = load i32, ptr %8, align 4
  store i32 %102, ptr %3, align 4
  store i32 1, ptr %10, align 4
  br label %103

103:                                              ; preds = %101, %38
  call void @llvm.lifetime.end.p0(i64 4, ptr %8) #13
  call void @llvm.lifetime.end.p0(i64 4, ptr %7) #13
  call void @llvm.lifetime.end.p0(i64 4, ptr %6) #13
  %104 = load i32, ptr %3, align 4
  ret i32 %104
}