; Function Attrs: nounwind uwtable
define dso_local range(i32 -1, 1) i32 @job_update_tres_cnt(ptr noundef %0, i32 noundef %1) local_unnamed_addr #0 {
  %3 = getelementptr inbounds nuw i8, ptr %0, i64 216
  %4 = load ptr, ptr %3, align 8
  %5 = getelementptr inbounds nuw i8, ptr %4, i64 480
  %6 = load i8, ptr %5, align 8
  %7 = and i8 %6, 1
  %.not = icmp eq i8 %7, 0
  br i1 %.not, label %16, label %8

8:                                                ; preds = %2
  %9 = load ptr, ptr @node_record_table_ptr, align 8
  %10 = sext i32 %1 to i64
  %11 = getelementptr inbounds ptr, ptr %9, i64 %10
  %12 = load ptr, ptr %11, align 8
  %13 = getelementptr inbounds nuw i8, ptr %12, i64 72
  %14 = load ptr, ptr %13, align 8
  %15 = getelementptr inbounds nuw i8, ptr %14, i64 24
  br label %30

16:                                               ; preds = %2
  %17 = getelementptr inbounds nuw i8, ptr %0, i64 440
  %18 = load ptr, ptr %17, align 8
  %19 = tail call i32 @job_resources_node_inx_to_cpu_inx(ptr noundef %18, i32 noundef %1) #27
  %20 = icmp slt i32 %19, 0
  br i1 %20, label %21, label %24

21:                                               ; preds = %16
  %22 = tail call i32 (ptr, ...) @error(ptr noundef nonnull @.str.174, ptr noundef nonnull @__func__.job_update_tres_cnt, ptr noundef nonnull %0) #27
  %23 = getelementptr inbounds nuw i8, ptr %0, i64 168
  store i32 0, ptr %23, align 8
  br label %51

24:                                               ; preds = %16
  %25 = load ptr, ptr %17, align 8
  %26 = getelementptr inbounds nuw i8, ptr %25, i64 40
  %27 = load ptr, ptr %26, align 8
  %28 = zext nneg i32 %19 to i64
  %29 = getelementptr inbounds nuw i16, ptr %27, i64 %28
  br label %30

30:                                               ; preds = %24, %8
  %.027.in.in = phi ptr [ %15, %8 ], [ %29, %24 ]
  %.027.in = load i16, ptr %.027.in.in, align 2
  %.027 = zext i16 %.027.in to i32
  %31 = getelementptr inbounds nuw i8, ptr %0, i64 168
  %32 = load i32, ptr %31, align 8
  %33 = icmp ult i32 %32, %.027
  br i1 %33, label %34, label %36

34:                                               ; preds = %30
  %35 = tail call i32 (ptr, ...) @error(ptr noundef nonnull @.str.175, ptr noundef nonnull @__func__.job_update_tres_cnt, i32 noundef %.027, i32 noundef %32, ptr noundef nonnull %0) #27
  br label %38

36:                                               ; preds = %30
  %37 = sub nuw i32 %32, %.027
  br label %38

38:                                               ; preds = %36, %34
  %storemerge = phi i32 [ %37, %36 ], [ 0, %34 ]
  %.026 = phi i32 [ 0, %36 ], [ -1, %34 ]
  store i32 %storemerge, ptr %31, align 8
  %39 = getelementptr inbounds nuw i8, ptr %0, i64 448
  %40 = load i32, ptr %39, align 8
  %41 = and i32 %40, 8192
  %.not32 = icmp eq i32 %41, 0
  br i1 %.not32, label %51, label %42

42:                                               ; preds = %38
  %43 = getelementptr inbounds nuw i8, ptr %0, i64 992
  %44 = load i32, ptr %43, align 8
  %45 = icmp ult i32 %44, %.027
  br i1 %45, label %46, label %48

46:                                               ; preds = %42
  %47 = tail call i32 (ptr, ...) @error(ptr noundef nonnull @.str.176, ptr noundef nonnull @__func__.job_update_tres_cnt, ptr noundef nonnull %0) #27
  br label %50

48:                                               ; preds = %42
  %49 = sub nuw i32 %44, %.027
  br label %50

50:                                               ; preds = %48, %46
  %storemerge33 = phi i32 [ %49, %48 ], [ 0, %46 ]
  %.2 = phi i32 [ %.026, %48 ], [ -1, %46 ]
  store i32 %storemerge33, ptr %43, align 8
  tail call void @job_set_alloc_tres(ptr noundef nonnull %0, i1 noundef zeroext false)
  br label %51

51:                                               ; preds = %38, %50, %21
  %.0 = phi i32 [ -1, %21 ], [ %.2, %50 ], [ %.026, %38 ]
  ret i32 %.0
}